target datalayout = "e-m:e-p270:32:32-p271:32:32-p272:64:64-i64:64-i128:128-f80:128-n8:16:32:64-S128"
target triple = "x86_64-pc-linux-gnu"

%struct.AF_StyleMetricsRec_ = type { ptr, %struct.AF_ScalerRec_, i8, ptr }
%struct.AF_ScalerRec_ = type { ptr, i64, i64, i64, i64, i32, i32 }
%struct.AF_GlyphHintsRec_ = type { ptr, i64, i64, i64, i64, i32, i32, ptr, i32, i32, ptr, [2 x %struct.AF_AxisHintsRec_], i32, i32, ptr, %struct.anon.0 }
%struct.AF_AxisHintsRec_ = type { i32, i32, ptr, i32, i32, ptr, i32, %struct.anon }
%struct.anon = type { [18 x %struct.AF_SegmentRec_], [12 x %struct.AF_EdgeRec_] }
%struct.AF_SegmentRec_ = type { i8, i8, i16, i16, i16, i16, i16, ptr, ptr, ptr, ptr, i64, i64, ptr, ptr }
%struct.AF_EdgeRec_ = type { i16, i64, i64, i8, i8, i64, ptr, ptr, ptr, i32, ptr, ptr }
%struct.anon.0 = type { [8 x ptr], [96 x %struct.AF_PointRec_] }
%struct.AF_PointRec_ = type { i16, i8, i8, i64, i64, i16, i16, i64, i64, i64, i64, ptr, ptr }

; Function Attrs: nounwind uwtable
define internal void @af_glyph_hints_rescale(ptr noundef %0, ptr noundef %1) #0 {
  %3 = alloca ptr, align 8
  %4 = alloca ptr, align 8
  store ptr %0, ptr %3, align 8, !tbaa !48
  store ptr %1, ptr %4, align 8, !tbaa !3
  %5 = load ptr, ptr %4, align 8, !tbaa !3
  %6 = load ptr, ptr %3, align 8, !tbaa !48
  %7 = getelementptr inbounds nuw %struct.AF_GlyphHintsRec_, ptr %6, i32 0, i32 14
  store ptr %5, ptr %7, align 8, !tbaa !236
  %8 = load ptr, ptr %4, align 8, !tbaa !3
  %9 = getelementptr inbounds nuw %struct.AF_StyleMetricsRec_, ptr %8, i32 0, i32 1
  %10 = getelementptr inbounds nuw %struct.AF_ScalerRec_, ptr %9, i32 0, i32 6
  %11 = load i32, ptr %10, align 4, !tbaa !237
  %12 = load ptr, ptr %3, align 8, !tbaa !48
  %13 = getelementptr inbounds nuw %struct.AF_GlyphHintsRec_, ptr %12, i32 0, i32 12
  store i32 %11, ptr %13, align 8, !tbaa !61
  ret void
}

; Function Attrs: nounwind uwtable
define internal i32 @af_dummy_hints_init(ptr noundef %0, ptr noundef %1) #0 {
  %3 = alloca ptr, align 8
  %4 = alloca ptr, align 8
  store ptr %0, ptr %3, align 8, !tbaa !48
  store ptr %1, ptr %4, align 8, !tbaa !3
  %5 = load ptr, ptr %3, align 8, !tbaa !48
  %6 = load ptr, ptr %4, align 8, !tbaa !3
  call void @af_glyph_hints_rescale(ptr noundef %5, ptr noundef %6)
  %7 = load ptr, ptr %4, align 8, !tbaa !3
  %8 = getelementptr inbounds nuw %struct.AF_StyleMetricsRec_, ptr %7, i32 0, i32 1
  %9 = getelementptr inbounds nuw %struct.AF_ScalerRec_, ptr %8, i32 0, i32 1
  %10 = load i64, ptr %9, align 8, !tbaa !67
  %11 = load ptr, ptr %3, align 8, !tbaa !48
  %12 = getelementptr inbounds nuw %struct.AF_GlyphHintsRec_, ptr %11, i32 0, i32 1
  store i64 %10, ptr %12, align 8, !tbaa !51
  %13 = load ptr, ptr %4, align 8, !tbaa !3
  %14 = getelementptr inbounds nuw %struct.AF_StyleMetricsRec_, ptr %13, i32 0, i32 1
  %15 = getelementptr inbounds nuw %struct.AF_ScalerRec_, ptr %14, i32 0, i32 2
  %16 = load i64, ptr %15, align 8, !tbaa !68
  %17 = load ptr, ptr %3, align 8, !tbaa !48
  %18 = getelementptr inbounds nuw %struct.AF_GlyphHintsRec_, ptr %17, i32 0, i32 3
  store i64 %16, ptr %18, align 8, !tbaa !58
  %19 = load ptr, ptr %4, align 8, !tbaa !3
  %20 = getelementptr inbounds nuw %struct.AF_StyleMetricsRec_, ptr %19, i32 0, i32 1
  %21 = getelementptr inbounds nuw %struct.AF_ScalerRec_, ptr %20, i32 0, i32 3
  %22 = load i64, ptr %21, align 8, !tbaa !69
  %23 = load ptr, ptr %3, align 8, !tbaa !48
  %24 = getelementptr inbounds nuw %struct.AF_GlyphHintsRec_, ptr %23, i32 0, i32 2
  store i64 %22, ptr %24, align 8, !tbaa !57
  %25 = load ptr, ptr %4, align 8, !tbaa !3
  %26 = getelementptr inbounds nuw %struct.AF_StyleMetricsRec_, ptr %25, i32 0, i32 1
  %27 = getelementptr inbounds nuw %struct.AF_ScalerRec_, ptr %26, i32 0, i32 4
  %28 = load i64, ptr %27, align 8, !tbaa !70
  %29 = load ptr, ptr %3, align 8, !tbaa !48
  %30 = getelementptr inbounds nuw %struct.AF_GlyphHintsRec_, ptr %29, i32 0, i32 4
  store i64 %28, ptr %30, align 8, !tbaa !59
  ret i32 0
}