; Function Attrs: mustprogress nofree norecurse nosync nounwind willreturn memory(argmem: readwrite) uwtable
define internal noundef i32 @af_dummy_hints_init(ptr noundef writeonly captures(none) initializes((8, 40), (5144, 5148), (5152, 5160)) %0, ptr noundef %1) #1 {
  %3 = getelementptr inbounds nuw i8, ptr %0, i64 5152
  store ptr %1, ptr %3, align 8, !tbaa !69
  %4 = getelementptr inbounds nuw i8, ptr %1, i64 52
  %5 = load i32, ptr %4, align 4, !tbaa !75
  %6 = getelementptr inbounds nuw i8, ptr %0, i64 5144
  store i32 %5, ptr %6, align 8, !tbaa !83
  %7 = getelementptr inbounds nuw i8, ptr %1, i64 16
  %8 = load i64, ptr %7, align 8, !tbaa !114
  %9 = getelementptr inbounds nuw i8, ptr %0, i64 8
  store i64 %8, ptr %9, align 8, !tbaa !77
  %10 = getelementptr inbounds nuw i8, ptr %1, i64 24
  %11 = load i64, ptr %10, align 8, !tbaa !115
  %12 = getelementptr inbounds nuw i8, ptr %0, i64 24
  store i64 %11, ptr %12, align 8, !tbaa !80
  %13 = getelementptr inbounds nuw i8, ptr %1, i64 32
  %14 = load i64, ptr %13, align 8, !tbaa !116
  %15 = getelementptr inbounds nuw i8, ptr %0, i64 16
  store i64 %14, ptr %15, align 8, !tbaa !79
  %16 = getelementptr inbounds nuw i8, ptr %1, i64 40
  %17 = load i64, ptr %16, align 8, !tbaa !117
  %18 = getelementptr inbounds nuw i8, ptr %0, i64 32
  store i64 %17, ptr %18, align 8, !tbaa !81
  ret i32 0
}